target datalayout = "e-m:e-p270:32:32-p271:32:32-p272:64:64-i64:64-i128:128-f80:128-n8:16:32:64-S128"
target triple = "x86_64-pc-linux-gnu"

%struct.cbs_st = type { ptr, i64 }

@.str = private unnamed_addr constant [118 x i8] c"generated/home/dtcxzyw/WorkSpace/Projects/compilers/llvm-opt-benchmark/bench/libquic/libquic/boringssl/ssl/ssl_asn1.c\00", align 1

; Function Attrs: nounwind uwtable
define internal i32 @SSL_SESSION_parse_bounded_octet_string(ptr noundef %0, ptr noundef %1, ptr noundef %2, i32 noundef %3, i32 noundef %4) #0 {
  %6 = alloca i32, align 4
  %7 = alloca ptr, align 8
  %8 = alloca ptr, align 8
  %9 = alloca ptr, align 8
  %10 = alloca i32, align 4
  %11 = alloca i32, align 4
  %12 = alloca %struct.cbs_st, align 8
  %13 = alloca i32, align 4
  store ptr %0, ptr %7, align 8, !tbaa !52
  store ptr %1, ptr %8, align 8, !tbaa !51
  store ptr %2, ptr %9, align 8, !tbaa !62
  store i32 %3, ptr %10, align 4, !tbaa !15
  store i32 %4, ptr %11, align 4, !tbaa !15
  call void @llvm.lifetime.start.p0(i64 16, ptr %12) #6
  %14 = load ptr, ptr %7, align 8, !tbaa !52
  %15 = load i32, ptr %11, align 4, !tbaa !15
  %16 = call i32 @CBS_get_optional_asn1_octet_string(ptr noundef %14, ptr noundef %12, ptr noundef null, i32 noundef %15)
  %17 = icmp ne i32 %16, 0
  br i1 %17, label %18, label %23

18:                                               ; preds = %5
  %19 = call i64 @CBS_len(ptr noundef %12)
  %20 = load i32, ptr %10, align 4, !tbaa !15
  %21 = zext i32 %20 to i64
  %22 = icmp ugt i64 %19, %21
  br i1 %22, label %23, label %24

23:                                               ; preds = %18, %5
  call void @ERR_put_error(i32 noundef 16, i32 noundef 0, i32 noundef 160, ptr noundef @.str, i32 noundef 460)
  store i32 0, ptr %6, align 4
  store i32 1, ptr %13, align 4
  br label %31

24:                                               ; preds = %18
  %25 = load ptr, ptr %8, align 8, !tbaa !51
  %26 = call ptr @CBS_data(ptr noundef %12)
  %27 = call i64 @CBS_len(ptr noundef %12)
  call void @llvm.memcpy.p0.p0.i64(ptr align 1 %25, ptr align 1 %26, i64 %27, i1 false)
  %28 = call i64 @CBS_len(ptr noundef %12)
  %29 = trunc i64 %28 to i32
  %30 = load ptr, ptr %9, align 8, !tbaa !62
  store i32 %29, ptr %30, align 4, !tbaa !15
  store i32 1, ptr %6, align 4
  store i32 1, ptr %13, align 4
  br label %31

31:                                               ; preds = %24, %23
  call void @llvm.lifetime.end.p0(i64 16, ptr %12) #6
  %32 = load i32, ptr %6, align 4
  ret i32 %32
}