; Function Attrs: nounwind uwtable
define internal fastcc range(i32 0, 2) i32 @SSL_SESSION_parse_bounded_octet_string(ptr noundef nonnull %0, ptr noundef nonnull writeonly captures(none) %1, ptr noundef nonnull writeonly captures(none) %2, i32 noundef range(i32 32, 65) %3, i32 noundef range(i32 164, 175) %4) unnamed_addr #0 {
  %6 = alloca %struct.cbs_st, align 8
  call void @llvm.lifetime.start.p0(i64 16, ptr nonnull %6) #7
  %7 = call i32 @CBS_get_optional_asn1_octet_string(ptr noundef nonnull %0, ptr noundef nonnull %6, ptr noundef null, i32 noundef %4) #7
  %.not = icmp eq i32 %7, 0
  br i1 %.not, label %12, label %8

8:                                                ; preds = %5
  %9 = call i64 @CBS_len(ptr noundef nonnull %6) #7
  %10 = zext nneg i32 %3 to i64
  %11 = icmp ugt i64 %9, %10
  br i1 %11, label %12, label %13

12:                                               ; preds = %8, %5
  call void @ERR_put_error(i32 noundef 16, i32 noundef 0, i32 noundef 160, ptr noundef nonnull @.str, i32 noundef 460) #7
  br label %18

13:                                               ; preds = %8
  %14 = call ptr @CBS_data(ptr noundef nonnull %6) #7
  %15 = call i64 @CBS_len(ptr noundef nonnull %6) #7
  call void @llvm.memcpy.p0.p0.i64(ptr nonnull align 1 %1, ptr align 1 %14, i64 %15, i1 false)
  %16 = call i64 @CBS_len(ptr noundef nonnull %6) #7
  %17 = trunc i64 %16 to i32
  store i32 %17, ptr %2, align 4, !tbaa !48
  br label %18

18:                                               ; preds = %13, %12
  %.0 = phi i32 [ 0, %12 ], [ 1, %13 ]
  call void @llvm.lifetime.end.p0(i64 16, ptr nonnull %6) #7
  ret i32 %.0
}